target datalayout = "e-m:e-p270:32:32-p271:32:32-p272:64:64-i64:64-i128:128-f80:128-n8:16:32:64-S128"
target triple = "x86_64-unknown-linux-gnu"

%"class.std::shared_ptr" = type { %"class.std::__shared_ptr" }
%"class.std::__shared_ptr" = type { ptr, %"class.std::__shared_count" }
%"class.std::__shared_count" = type { ptr }
%"class.node::inspector::WorkerManager" = type <{ %"class.std::enable_shared_from_this.18", %"class.std::shared_ptr", %"class.std::unordered_map", %"class.std::unordered_map.26", %"class.std::unordered_set", i32, [4 x i8] }>
%"class.std::enable_shared_from_this.18" = type { %"class.std::weak_ptr.19" }
%"class.std::weak_ptr.19" = type { %"class.std::__weak_ptr.20" }
%"class.std::__weak_ptr.20" = type { ptr, %"class.std::__weak_count" }
%"class.std::__weak_count" = type { ptr }
%"class.std::unordered_map" = type { %"class.std::_Hashtable" }
%"class.std::_Hashtable" = type { ptr, i64, %"struct.std::__detail::_Hash_node_base", i64, %"struct.std::__detail::_Prime_rehash_policy", ptr }
%"struct.std::__detail::_Hash_node_base" = type { ptr }
%"struct.std::__detail::_Prime_rehash_policy" = type { float, i64 }
%"class.std::unordered_map.26" = type { %"class.std::_Hashtable.27" }
%"class.std::_Hashtable.27" = type { ptr, i64, %"struct.std::__detail::_Hash_node_base", i64, %"struct.std::__detail::_Prime_rehash_policy", ptr }
%"class.std::unordered_set" = type { %"class.std::_Hashtable.46" }
%"class.std::_Hashtable.46" = type { ptr, i64, %"struct.std::__detail::_Hash_node_base", i64, %"struct.std::__detail::_Prime_rehash_policy", ptr }
%"struct.std::pair.92" = type <{ %"struct.std::__detail::_Node_iterator.94", i8, [7 x i8] }>
%"struct.std::__detail::_Node_iterator.94" = type { %"struct.std::__detail::_Node_iterator_base.95" }
%"struct.std::__detail::_Node_iterator_base.95" = type { ptr }
%"struct.std::__detail::_Identity" = type { i8 }
%"struct.std::__detail::_AllocNode" = type { ptr }

; Function Attrs: mustprogress nounwind uwtable
define linkonce_odr dso_local noundef nonnull align 4 dereferenceable(4) ptr @_ZNSt10_HashtableIiiSaIiENSt8__detail9_IdentityESt8equal_toIiESt4hashIiENS1_18_Mod_range_hashingENS1_20_Default_ranged_hashENS1_20_Prime_rehash_policyENS1_17_Hashtable_traitsILb0ELb1ELb1EEEE14_S_forward_keyERKi(ptr noundef nonnull align 4 dereferenceable(4) %__k) #0 comdat align 2 {
entry:
  %__k.addr = alloca ptr, align 8
  store ptr %__k, ptr %__k.addr, align 8
  %0 = load ptr, ptr %__k.addr, align 8
  ret ptr %0
}

; Function Attrs: mustprogress nounwind uwtable
define linkonce_odr dso_local noundef nonnull align 4 dereferenceable(4) ptr @_ZNKSt8__detail9_IdentityclIRKiEEOT_S5_(ptr noundef nonnull align 1 dereferenceable(1) %this, ptr noundef nonnull align 4 dereferenceable(4) %__x) #0 comdat align 2 {
entry:
  %this.addr = alloca ptr, align 8
  %__x.addr = alloca ptr, align 8
  store ptr %this, ptr %this.addr, align 8
  store ptr %__x, ptr %__x.addr, align 8
  %0 = load ptr, ptr %__x.addr, align 8
  ret ptr %0
}

; Function Attrs: mustprogress nounwind uwtable
define linkonce_odr dso_local { ptr, i8 } @_ZNSt10_HashtableIiiSaIiENSt8__detail9_IdentityESt8equal_toIiESt4hashIiENS1_18_Mod_range_hashingENS1_20_Default_ranged_hashENS1_20_Prime_rehash_policyENS1_17_Hashtable_traitsILb0ELb1ELb1EEEE9_M_insertIRKiNS1_10_AllocNodeISaINS1_10_Hash_nodeIiLb0EEEEEEEESt4pairINS1_14_Node_iteratorIiLb1ELb0EEEbEOT_RKT0_St17integral_constantIbLb1EE(ptr noundef nonnull align 8 dereferenceable(56) %this, ptr noundef nonnull align 4 dereferenceable(4) %__arg, ptr noundef nonnull align 8 dereferenceable(8) %__node_gen) #0 comdat align 2 {
entry:
  %retval = alloca %"struct.std::pair.92", align 8
  %this.addr = alloca ptr, align 8
  %__arg.addr = alloca ptr, align 8
  %__node_gen.addr = alloca ptr, align 8
  %ref.tmp = alloca %"struct.std::__detail::_Identity", align 1
  store ptr %this, ptr %this.addr, align 8
  store ptr %__arg, ptr %__arg.addr, align 8
  store ptr %__node_gen, ptr %__node_gen.addr, align 8
  %this1 = load ptr, ptr %this.addr, align 8
  %0 = load ptr, ptr %__arg.addr, align 8
  %call = call noundef nonnull align 4 dereferenceable(4) ptr @_ZNKSt8__detail9_IdentityclIRKiEEOT_S5_(ptr noundef nonnull align 1 dereferenceable(1) %ref.tmp, ptr noundef nonnull align 4 dereferenceable(4) %0) #10
  %call2 = call noundef nonnull align 4 dereferenceable(4) ptr @_ZNSt10_HashtableIiiSaIiENSt8__detail9_IdentityESt8equal_toIiESt4hashIiENS1_18_Mod_range_hashingENS1_20_Default_ranged_hashENS1_20_Prime_rehash_policyENS1_17_Hashtable_traitsILb0ELb1ELb1EEEE14_S_forward_keyERKi(ptr noundef nonnull align 4 dereferenceable(4) %call)
  %1 = load ptr, ptr %__arg.addr, align 8
  %2 = load ptr, ptr %__node_gen.addr, align 8
  %call3 = call { ptr, i8 } @_ZNSt10_HashtableIiiSaIiENSt8__detail9_IdentityESt8equal_toIiESt4hashIiENS1_18_Mod_range_hashingENS1_20_Default_ranged_hashENS1_20_Prime_rehash_policyENS1_17_Hashtable_traitsILb0ELb1ELb1EEEE16_M_insert_uniqueIRKiSF_NS1_10_AllocNodeISaINS1_10_Hash_nodeIiLb0EEEEEEEESt4pairINS1_14_Node_iteratorIiLb1ELb0EEEbEOT_OT0_RKT1_(ptr noundef nonnull align 8 dereferenceable(56) %this1, ptr noundef nonnull align 4 dereferenceable(4) %call2, ptr noundef nonnull align 4 dereferenceable(4) %1, ptr noundef nonnull align 8 dereferenceable(8) %2)
  %3 = getelementptr inbounds { ptr, i8 }, ptr %retval, i32 0, i32 0
  %4 = extractvalue { ptr, i8 } %call3, 0
  store ptr %4, ptr %3, align 8
  %5 = getelementptr inbounds { ptr, i8 }, ptr %retval, i32 0, i32 1
  %6 = extractvalue { ptr, i8 } %call3, 1
  store i8 %6, ptr %5, align 8
  %7 = load { ptr, i8 }, ptr %retval, align 8
  ret { ptr, i8 } %7
}

; Function Attrs: mustprogress nounwind uwtable
define linkonce_odr dso_local void @_ZNSt8__detail10_AllocNodeISaINS_10_Hash_nodeIiLb0EEEEEC2ERNS_16_Hashtable_allocIS3_EE(ptr noundef nonnull align 8 dereferenceable(8) %this, ptr noundef nonnull align 1 dereferenceable(1) %__h) unnamed_addr #0 comdat align 2 {
entry:
  %this.addr = alloca ptr, align 8
  %__h.addr = alloca ptr, align 8
  store ptr %this, ptr %this.addr, align 8
  store ptr %__h, ptr %__h.addr, align 8
  %this1 = load ptr, ptr %this.addr, align 8
  %_M_h = getelementptr inbounds %"struct.std::__detail::_AllocNode", ptr %this1, i32 0, i32 0
  %0 = load ptr, ptr %__h.addr, align 8
  store ptr %0, ptr %_M_h, align 8
  ret void
}

; Function Attrs: mustprogress nounwind uwtable
define linkonce_odr dso_local noundef nonnull align 8 dereferenceable(56) ptr @_ZNSt8__detail12_Insert_baseIiiSaIiENS_9_IdentityESt8equal_toIiESt4hashIiENS_18_Mod_range_hashingENS_20_Default_ranged_hashENS_20_Prime_rehash_policyENS_17_Hashtable_traitsILb0ELb1ELb1EEEE20_M_conjure_hashtableEv(ptr noundef nonnull align 1 dereferenceable(1) %this) #0 comdat align 2 {
entry:
  %this.addr = alloca ptr, align 8
  store ptr %this, ptr %this.addr, align 8
  %this1 = load ptr, ptr %this.addr, align 8
  ret ptr %this1
}

; Function Attrs: mustprogress nounwind uwtable
define linkonce_odr dso_local noundef i64 @_ZNSt10_HashtableIiiSaIiENSt8__detail9_IdentityESt8equal_toIiESt4hashIiENS1_18_Mod_range_hashingENS1_20_Default_ranged_hashENS1_20_Prime_rehash_policyENS1_17_Hashtable_traitsILb0ELb1ELb1EEEE5eraseERKi(ptr noundef nonnull align 8 dereferenceable(56) %this, ptr noundef nonnull align 4 dereferenceable(4) %__k) #0 comdat align 2 {
entry:
  %this.addr = alloca ptr, align 8
  %__k.addr = alloca ptr, align 8
  store ptr %this, ptr %this.addr, align 8
  store ptr %__k, ptr %__k.addr, align 8
  %this1 = load ptr, ptr %this.addr, align 8
  %0 = load ptr, ptr %__k.addr, align 8
  %call = call noundef i64 @_ZNSt10_HashtableIiiSaIiENSt8__detail9_IdentityESt8equal_toIiESt4hashIiENS1_18_Mod_range_hashingENS1_20_Default_ranged_hashENS1_20_Prime_rehash_policyENS1_17_Hashtable_traitsILb0ELb1ELb1EEEE8_M_eraseESt17integral_constantIbLb1EERKi(ptr noundef nonnull align 8 dereferenceable(56) %this1, ptr noundef nonnull align 4 dereferenceable(4) %0)
  ret i64 %call
}

; Function Attrs: mustprogress nounwind uwtable
define linkonce_odr dso_local { ptr, i8 } @_ZNSt8__detail12_Insert_baseIiiSaIiENS_9_IdentityESt8equal_toIiESt4hashIiENS_18_Mod_range_hashingENS_20_Default_ranged_hashENS_20_Prime_rehash_policyENS_17_Hashtable_traitsILb0ELb1ELb1EEEE6insertERKi(ptr noundef nonnull align 1 dereferenceable(1) %this, ptr noundef nonnull align 4 dereferenceable(4) %__v) #0 comdat align 2 {
entry:
  %retval = alloca %"struct.std::pair.92", align 8
  %this.addr = alloca ptr, align 8
  %__v.addr = alloca ptr, align 8
  %__h = alloca ptr, align 8
  %__node_gen = alloca %"struct.std::__detail::_AllocNode", align 8
  store ptr %this, ptr %this.addr, align 8
  store ptr %__v, ptr %__v.addr, align 8
  %this1 = load ptr, ptr %this.addr, align 8
  %call = call noundef nonnull align 8 dereferenceable(56) ptr @_ZNSt8__detail12_Insert_baseIiiSaIiENS_9_IdentityESt8equal_toIiESt4hashIiENS_18_Mod_range_hashingENS_20_Default_ranged_hashENS_20_Prime_rehash_policyENS_17_Hashtable_traitsILb0ELb1ELb1EEEE20_M_conjure_hashtableEv(ptr noundef nonnull align 1 dereferenceable(1) %this1)
  store ptr %call, ptr %__h, align 8
  %0 = load ptr, ptr %__h, align 8
  call void @_ZNSt8__detail10_AllocNodeISaINS_10_Hash_nodeIiLb0EEEEEC2ERNS_16_Hashtable_allocIS3_EE(ptr noundef nonnull align 8 dereferenceable(8) %__node_gen, ptr noundef nonnull align 1 dereferenceable(1) %0)
  %1 = load ptr, ptr %__h, align 8
  %2 = load ptr, ptr %__v.addr, align 8
  %call2 = call { ptr, i8 } @_ZNSt10_HashtableIiiSaIiENSt8__detail9_IdentityESt8equal_toIiESt4hashIiENS1_18_Mod_range_hashingENS1_20_Default_ranged_hashENS1_20_Prime_rehash_policyENS1_17_Hashtable_traitsILb0ELb1ELb1EEEE9_M_insertIRKiNS1_10_AllocNodeISaINS1_10_Hash_nodeIiLb0EEEEEEEESt4pairINS1_14_Node_iteratorIiLb1ELb0EEEbEOT_RKT0_St17integral_constantIbLb1EE(ptr noundef nonnull align 8 dereferenceable(56) %1, ptr noundef nonnull align 4 dereferenceable(4) %2, ptr noundef nonnull align 8 dereferenceable(8) %__node_gen)
  %3 = getelementptr inbounds { ptr, i8 }, ptr %retval, i32 0, i32 0
  %4 = extractvalue { ptr, i8 } %call2, 0
  store ptr %4, ptr %3, align 8
  %5 = getelementptr inbounds { ptr, i8 }, ptr %retval, i32 0, i32 1
  %6 = extractvalue { ptr, i8 } %call2, 1
  store i8 %6, ptr %5, align 8
  %7 = load { ptr, i8 }, ptr %retval, align 8
  ret { ptr, i8 } %7
}

; Function Attrs: mustprogress nounwind uwtable
define linkonce_odr dso_local noundef i64 @_ZNSt13unordered_setIiSt4hashIiESt8equal_toIiESaIiEE5eraseERKi(ptr noundef nonnull align 8 dereferenceable(56) %this, ptr noundef nonnull align 4 dereferenceable(4) %__x) #0 comdat align 2 {
entry:
  %this.addr = alloca ptr, align 8
  %__x.addr = alloca ptr, align 8
  store ptr %this, ptr %this.addr, align 8
  store ptr %__x, ptr %__x.addr, align 8
  %this1 = load ptr, ptr %this.addr, align 8
  %_M_h = getelementptr inbounds %"class.std::unordered_set", ptr %this1, i32 0, i32 0
  %0 = load ptr, ptr %__x.addr, align 8
  %call = call noundef i64 @_ZNSt10_HashtableIiiSaIiENSt8__detail9_IdentityESt8equal_toIiESt4hashIiENS1_18_Mod_range_hashingENS1_20_Default_ranged_hashENS1_20_Prime_rehash_policyENS1_17_Hashtable_traitsILb0ELb1ELb1EEEE5eraseERKi(ptr noundef nonnull align 8 dereferenceable(56) %_M_h, ptr noundef nonnull align 4 dereferenceable(4) %0)
  ret i64 %call
}

; Function Attrs: mustprogress nounwind uwtable
define linkonce_odr dso_local { ptr, i8 } @_ZNSt13unordered_setIiSt4hashIiESt8equal_toIiESaIiEE6insertERKi(ptr noundef nonnull align 8 dereferenceable(56) %this, ptr noundef nonnull align 4 dereferenceable(4) %__x) #0 comdat align 2 {
entry:
  %retval = alloca %"struct.std::pair.92", align 8
  %this.addr = alloca ptr, align 8
  %__x.addr = alloca ptr, align 8
  store ptr %this, ptr %this.addr, align 8
  store ptr %__x, ptr %__x.addr, align 8
  %this1 = load ptr, ptr %this.addr, align 8
  %_M_h = getelementptr inbounds %"class.std::unordered_set", ptr %this1, i32 0, i32 0
  %0 = load ptr, ptr %__x.addr, align 8
  %call = call { ptr, i8 } @_ZNSt8__detail12_Insert_baseIiiSaIiENS_9_IdentityESt8equal_toIiESt4hashIiENS_18_Mod_range_hashingENS_20_Default_ranged_hashENS_20_Prime_rehash_policyENS_17_Hashtable_traitsILb0ELb1ELb1EEEE6insertERKi(ptr noundef nonnull align 1 dereferenceable(1) %_M_h, ptr noundef nonnull align 4 dereferenceable(4) %0)
  %1 = getelementptr inbounds { ptr, i8 }, ptr %retval, i32 0, i32 0
  %2 = extractvalue { ptr, i8 } %call, 0
  store ptr %2, ptr %1, align 8
  %3 = getelementptr inbounds { ptr, i8 }, ptr %retval, i32 0, i32 1
  %4 = extractvalue { ptr, i8 } %call, 1
  store i8 %4, ptr %3, align 8
  %5 = load { ptr, i8 }, ptr %retval, align 8
  ret { ptr, i8 } %5
}

; Function Attrs: mustprogress nounwind uwtable
define dso_local void @_ZN4node9inspector13WorkerManager25SetWaitOnStartForDelegateEib(ptr noundef nonnull align 8 dereferenceable(204) %this, i32 noundef %id, i1 noundef zeroext %wait) #0 align 2 {
entry:
  %this.addr = alloca ptr, align 8
  %id.addr = alloca i32, align 4
  %wait.addr = alloca i8, align 1
  %coerce = alloca %"struct.std::pair.92", align 8
  store ptr %this, ptr %this.addr, align 8
  store i32 %id, ptr %id.addr, align 4
  %frombool = zext i1 %wait to i8
  store i8 %frombool, ptr %wait.addr, align 1
  %this1 = load ptr, ptr %this.addr, align 8
  %0 = load i8, ptr %wait.addr, align 1
  %tobool = trunc i8 %0 to i1
  br i1 %tobool, label %if.then, label %if.else

if.then:                                          ; preds = %entry
  %delegates_waiting_on_start_ = getelementptr inbounds %"class.node::inspector::WorkerManager", ptr %this1, i32 0, i32 4
  %call = call { ptr, i8 } @_ZNSt13unordered_setIiSt4hashIiESt8equal_toIiESaIiEE6insertERKi(ptr noundef nonnull align 8 dereferenceable(56) %delegates_waiting_on_start_, ptr noundef nonnull align 4 dereferenceable(4) %id.addr)
  %1 = getelementptr inbounds { ptr, i8 }, ptr %coerce, i32 0, i32 0
  %2 = extractvalue { ptr, i8 } %call, 0
  store ptr %2, ptr %1, align 8
  %3 = getelementptr inbounds { ptr, i8 }, ptr %coerce, i32 0, i32 1
  %4 = extractvalue { ptr, i8 } %call, 1
  store i8 %4, ptr %3, align 8
  br label %if.end

if.else:                                          ; preds = %entry
  %delegates_waiting_on_start_2 = getelementptr inbounds %"class.node::inspector::WorkerManager", ptr %this1, i32 0, i32 4
  %call3 = call noundef i64 @_ZNSt13unordered_setIiSt4hashIiESt8equal_toIiESaIiEE5eraseERKi(ptr noundef nonnull align 8 dereferenceable(56) %delegates_waiting_on_start_2, ptr noundef nonnull align 4 dereferenceable(4) %id.addr)
  br label %if.end

if.end:                                           ; preds = %if.else, %if.then
  ret void
}