; Function Attrs: mustprogress nounwind uwtable
define dso_local void @_ZN4node9inspector13WorkerManager25SetWaitOnStartForDelegateEib(ptr noundef nonnull align 8 dereferenceable(204) %this, i32 noundef %id, i1 noundef zeroext %wait) local_unnamed_addr #0 align 2 {
entry:
  %__node_gen.i.i = alloca %"struct.std::__detail::_AllocNode", align 8
  %id.addr = alloca i32, align 4
  store i32 %id, ptr %id.addr, align 4
  %delegates_waiting_on_start_ = getelementptr inbounds i8, ptr %this, i64 144
  br i1 %wait, label %if.then, label %if.else

if.then:                                          ; preds = %entry
  call void @llvm.lifetime.start.p0(i64 8, ptr nonnull %__node_gen.i.i)
  store ptr %delegates_waiting_on_start_, ptr %__node_gen.i.i, align 8
  %call3.i.i.i = call { ptr, i8 } @_ZNSt10_HashtableIiiSaIiENSt8__detail9_IdentityESt8equal_toIiESt4hashIiENS1_18_Mod_range_hashingENS1_20_Default_ranged_hashENS1_20_Prime_rehash_policyENS1_17_Hashtable_traitsILb0ELb1ELb1EEEE16_M_insert_uniqueIRKiSF_NS1_10_AllocNodeISaINS1_10_Hash_nodeIiLb0EEEEEEEESt4pairINS1_14_Node_iteratorIiLb1ELb0EEEbEOT_OT0_RKT1_(ptr noundef nonnull align 8 dereferenceable(56) %delegates_waiting_on_start_, ptr noundef nonnull align 4 dereferenceable(4) %id.addr, ptr noundef nonnull align 4 dereferenceable(4) %id.addr, ptr noundef nonnull align 8 dereferenceable(8) %__node_gen.i.i)
  call void @llvm.lifetime.end.p0(i64 8, ptr nonnull %__node_gen.i.i)
  br label %if.end

if.else:                                          ; preds = %entry
  %call.i.i = call noundef i64 @_ZNSt10_HashtableIiiSaIiENSt8__detail9_IdentityESt8equal_toIiESt4hashIiENS1_18_Mod_range_hashingENS1_20_Default_ranged_hashENS1_20_Prime_rehash_policyENS1_17_Hashtable_traitsILb0ELb1ELb1EEEE8_M_eraseESt17integral_constantIbLb1EERKi(ptr noundef nonnull align 8 dereferenceable(56) %delegates_waiting_on_start_, ptr noundef nonnull align 4 dereferenceable(4) %id.addr)
  br label %if.end

if.end:                                           ; preds = %if.else, %if.then
  ret void
}